target datalayout = "e-m:e-p270:32:32-p271:32:32-p272:64:64-i64:64-i128:128-f80:128-n8:16:32:64-S128"
target triple = "x86_64-unknown-linux-gnu"

%"class.boost::detail::shared_count" = type { ptr }
%"class.boost::shared_ptr.50" = type { ptr, %"class.boost::detail::shared_count" }
%"class.QuantLib::Array" = type { %"class.std::unique_ptr", i64 }
%"class.std::unique_ptr" = type { %"struct.std::__uniq_ptr_data" }
%"struct.std::__uniq_ptr_data" = type { %"class.std::__uniq_ptr_impl" }
%"class.std::__uniq_ptr_impl" = type { %"class.std::tuple" }
%"class.std::tuple" = type { %"struct.std::_Tuple_impl" }
%"struct.std::_Tuple_impl" = type { %"struct.std::_Head_base.34" }
%"struct.std::_Head_base.34" = type { ptr }
%"class.QuantLib::Constraint" = type { %"class.boost::shared_ptr.48" }
%"class.boost::shared_ptr.48" = type { ptr, %"class.boost::detail::shared_count" }
%"class.QuantLib::ExponentialSplinesFitting" = type { %"class.QuantLib::FittedBondDiscountCurve::FittingMethod", i32, double }
%"class.QuantLib::FittedBondDiscountCurve::FittingMethod" = type { ptr, i8, ptr, %"class.QuantLib::Array", %"class.QuantLib::Array", %"class.boost::shared_ptr.49", %"class.QuantLib::Array", %"class.QuantLib::Array", i8, i32, double, i32, %"class.boost::shared_ptr.50", %"class.QuantLib::Constraint", double, double }
%"class.boost::shared_ptr.49" = type { ptr, %"class.boost::detail::shared_count" }
%"class.QuantLib::Null" = type { i8 }

; Function Attrs: mustprogress nounwind uwtable
define linkonce_odr noundef float @_ZNSt14numeric_limitsIfE3maxEv() #5 comdat align 2 {
entry:
  ret float 0x47EFFFFFE0000000
}

; Function Attrs: mustprogress nounwind uwtable
define linkonce_odr noundef float @_ZN8QuantLib6detail17FloatingPointNullILb1EE9nullValueEv() #5 comdat align 2 {
entry:
  %call = call noundef float @_ZNSt14numeric_limitsIfE3maxEv() #17
  ret float %call
}

; Function Attrs: mustprogress uwtable
define linkonce_odr noundef double @_ZNK8QuantLib4NullIdEcvdEv(ptr noundef nonnull align 1 dereferenceable(1) %this) #3 comdat align 2 {
entry:
  %this.addr = alloca ptr, align 8
  store ptr %this, ptr %this.addr, align 8, !tbaa !3
  %call = call noundef float @_ZN8QuantLib6detail17FloatingPointNullILb1EE9nullValueEv()
  %conv = fpext float %call to double
  ret double %conv
}

; Function Attrs: mustprogress uwtable
define noundef i64 @_ZNK8QuantLib25ExponentialSplinesFitting4sizeEv(ptr noundef nonnull align 8 dereferenceable(192) %this) unnamed_addr #3 align 2 {
entry:
  %this.addr = alloca ptr, align 8
  %N = alloca i64, align 8
  %ref.tmp = alloca %"class.QuantLib::Null", align 1
  store ptr %this, ptr %this.addr, align 8, !tbaa !3
  %this1 = load ptr, ptr %this.addr, align 8
  call void @llvm.lifetime.start.p0(i64 8, ptr %N) #17
  %constrainAtZero_ = getelementptr inbounds nuw %"class.QuantLib::FittedBondDiscountCurve::FittingMethod", ptr %this1, i32 0, i32 1
  %0 = load i8, ptr %constrainAtZero_, align 8, !tbaa !37, !range !15, !noundef !16
  %loadedv = trunc i8 %0 to i1
  br i1 %loadedv, label %cond.true, label %cond.false

cond.true:                                        ; preds = %entry
  %numCoeffs_ = getelementptr inbounds nuw %"class.QuantLib::ExponentialSplinesFitting", ptr %this1, i32 0, i32 1
  %1 = load i32, ptr %numCoeffs_, align 8, !tbaa !17
  br label %cond.end

cond.false:                                       ; preds = %entry
  %numCoeffs_2 = getelementptr inbounds nuw %"class.QuantLib::ExponentialSplinesFitting", ptr %this1, i32 0, i32 1
  %2 = load i32, ptr %numCoeffs_2, align 8, !tbaa !17
  %add = add i32 %2, 1
  br label %cond.end

cond.end:                                         ; preds = %cond.false, %cond.true
  %cond = phi i32 [ %1, %cond.true ], [ %add, %cond.false ]
  %conv = zext i32 %cond to i64
  store i64 %conv, ptr %N, align 8, !tbaa !13
  %fixedKappa_ = getelementptr inbounds nuw %"class.QuantLib::ExponentialSplinesFitting", ptr %this1, i32 0, i32 2
  %3 = load double, ptr %fixedKappa_, align 8, !tbaa !34
  call void @llvm.lifetime.start.p0(i64 1, ptr %ref.tmp) #17
  %call = call noundef double @_ZNK8QuantLib4NullIdEcvdEv(ptr noundef nonnull align 1 dereferenceable(1) %ref.tmp)
  %cmp = fcmp une double %3, %call
  br i1 %cmp, label %cond.true3, label %cond.false4

cond.true3:                                       ; preds = %cond.end
  %4 = load i64, ptr %N, align 8, !tbaa !13
  %sub = sub i64 %4, 1
  br label %cond.end5

cond.false4:                                      ; preds = %cond.end
  %5 = load i64, ptr %N, align 8, !tbaa !13
  br label %cond.end5

cond.end5:                                        ; preds = %cond.false4, %cond.true3
  %cond6 = phi i64 [ %sub, %cond.true3 ], [ %5, %cond.false4 ]
  call void @llvm.lifetime.end.p0(i64 1, ptr %ref.tmp) #17
  call void @llvm.lifetime.end.p0(i64 8, ptr %N) #17
  ret i64 %cond6
}