; Function Attrs: mustprogress nofree norecurse nosync nounwind willreturn memory(argmem: read) uwtable
define noundef range(i64 -1, 4294967296) i64 @_ZNK8QuantLib25ExponentialSplinesFitting4sizeEv(ptr nocapture noundef nonnull readonly align 8 dereferenceable(192) %this) unnamed_addr #9 align 2 {
entry:
  %constrainAtZero_ = getelementptr inbounds nuw i8, ptr %this, i64 8
  %0 = load i8, ptr %constrainAtZero_, align 8, !tbaa !41, !range !42, !noundef !43
  %numCoeffs_ = getelementptr inbounds nuw i8, ptr %this, i64 176
  %1 = load i32, ptr %numCoeffs_, align 8
  %2 = xor i8 %0, 1
  %not.loadedv = zext nneg i8 %2 to i32
  %cond = add i32 %1, %not.loadedv
  %conv = zext i32 %cond to i64
  %fixedKappa_ = getelementptr inbounds nuw i8, ptr %this, i64 184
  %3 = load double, ptr %fixedKappa_, align 8, !tbaa !40
  %cmp = fcmp une double %3, 0x47EFFFFFE0000000
  %sub = sext i1 %cmp to i64
  %cond6 = add nsw i64 %conv, %sub
  ret i64 %cond6
}